target datalayout = "e-m:e-p270:32:32-p271:32:32-p272:64:64-i64:64-i128:128-f80:128-n8:16:32:64-S128"
target triple = "x86_64-pc-linux-gnu"

%struct.Vec_Int_t_ = type { i32, i32, ptr }

@.str.8 = private unnamed_addr constant [2 x i8] c"~\00", align 1
@.str.9 = private unnamed_addr constant [2 x i8] c"(\00", align 1
@.str.10 = private unnamed_addr constant [5 x i8] c" %c \00", align 1
@.str.11 = private unnamed_addr constant [2 x i8] c")\00", align 1

; Function Attrs: inlinehint nounwind uwtable
define internal i32 @Abc_LitNotCond(i32 noundef %0, i32 noundef %1) #2 {
  %3 = alloca i32, align 4
  %4 = alloca i32, align 4
  store i32 %0, ptr %3, align 4, !tbaa !10
  store i32 %1, ptr %4, align 4, !tbaa !10
  %5 = load i32, ptr %3, align 4, !tbaa !10
  %6 = load i32, ptr %4, align 4, !tbaa !10
  %7 = icmp sgt i32 %6, 0
  %8 = zext i1 %7 to i32
  %9 = xor i32 %5, %8
  ret i32 %9
}

; Function Attrs: inlinehint nounwind uwtable
define internal i32 @Abc_LitIsCompl(i32 noundef %0) #2 {
  %2 = alloca i32, align 4
  store i32 %0, ptr %2, align 4, !tbaa !10
  %3 = load i32, ptr %2, align 4, !tbaa !10
  %4 = and i32 %3, 1
  ret i32 %4
}

; Function Attrs: inlinehint nounwind uwtable
define internal i32 @Vec_IntEntry(ptr noundef %0, i32 noundef %1) #2 {
  %3 = alloca ptr, align 8
  %4 = alloca i32, align 4
  store ptr %0, ptr %3, align 8, !tbaa !12
  store i32 %1, ptr %4, align 4, !tbaa !10
  %5 = load ptr, ptr %3, align 8, !tbaa !12
  %6 = getelementptr inbounds nuw %struct.Vec_Int_t_, ptr %5, i32 0, i32 2
  %7 = load ptr, ptr %6, align 8, !tbaa !18
  %8 = load i32, ptr %4, align 4, !tbaa !10
  %9 = sext i32 %8 to i64
  %10 = getelementptr inbounds i32, ptr %7, i64 %9
  %11 = load i32, ptr %10, align 4, !tbaa !10
  ret i32 %11
}

; Function Attrs: nounwind uwtable
define void @Gia_ManResubPrintNode(ptr noundef %0, i32 noundef %1, i32 noundef %2, i32 noundef %3) #0 {
  %5 = alloca ptr, align 8
  %6 = alloca i32, align 4
  %7 = alloca i32, align 4
  %8 = alloca i32, align 4
  %9 = alloca i32, align 4
  %10 = alloca i32, align 4
  store ptr %0, ptr %5, align 8, !tbaa !12
  store i32 %1, ptr %6, align 4, !tbaa !10
  store i32 %2, ptr %7, align 4, !tbaa !10
  store i32 %3, ptr %8, align 4, !tbaa !10
  call void @llvm.lifetime.start.p0(i64 4, ptr %9) #14
  %11 = load ptr, ptr %5, align 8, !tbaa !12
  %12 = load i32, ptr %7, align 4, !tbaa !10
  %13 = mul nsw i32 2, %12
  %14 = add nsw i32 %13, 0
  %15 = call i32 @Vec_IntEntry(ptr noundef %11, i32 noundef %14)
  store i32 %15, ptr %9, align 4, !tbaa !10
  call void @llvm.lifetime.start.p0(i64 4, ptr %10) #14
  %16 = load ptr, ptr %5, align 8, !tbaa !12
  %17 = load i32, ptr %7, align 4, !tbaa !10
  %18 = mul nsw i32 2, %17
  %19 = add nsw i32 %18, 1
  %20 = call i32 @Vec_IntEntry(ptr noundef %16, i32 noundef %19)
  store i32 %20, ptr %10, align 4, !tbaa !10
  %21 = load i32, ptr %9, align 4, !tbaa !10
  %22 = load i32, ptr %10, align 4, !tbaa !10
  %23 = icmp sgt i32 %21, %22
  br i1 %23, label %24, label %30

24:                                               ; preds = %4
  %25 = load i32, ptr %8, align 4, !tbaa !10
  %26 = call i32 @Abc_LitIsCompl(i32 noundef %25)
  %27 = icmp ne i32 %26, 0
  br i1 %27, label %28, label %30

28:                                               ; preds = %24
  %29 = call i32 (ptr, ...) @printf(ptr noundef @.str.8)
  store i32 0, ptr %8, align 4, !tbaa !10
  br label %30

30:                                               ; preds = %28, %24, %4
  %31 = call i32 (ptr, ...) @printf(ptr noundef @.str.9)
  %32 = load ptr, ptr %5, align 8, !tbaa !12
  %33 = load i32, ptr %6, align 4, !tbaa !10
  %34 = load i32, ptr %9, align 4, !tbaa !10
  %35 = load i32, ptr %8, align 4, !tbaa !10
  %36 = call i32 @Abc_LitNotCond(i32 noundef %34, i32 noundef %35)
  call void @Gia_ManResubPrintLit(ptr noundef %32, i32 noundef %33, i32 noundef %36)
  %37 = load i32, ptr %9, align 4, !tbaa !10
  %38 = load i32, ptr %10, align 4, !tbaa !10
  %39 = icmp sgt i32 %37, %38
  br i1 %39, label %40, label %41

40:                                               ; preds = %30
  br label %45

41:                                               ; preds = %30
  %42 = load i32, ptr %8, align 4, !tbaa !10
  %43 = icmp ne i32 %42, 0
  %44 = select i1 %43, i32 124, i32 38
  br label %45

45:                                               ; preds = %41, %40
  %46 = phi i32 [ 94, %40 ], [ %44, %41 ]
  %47 = call i32 (ptr, ...) @printf(ptr noundef @.str.10, i32 noundef %46)
  %48 = load ptr, ptr %5, align 8, !tbaa !12
  %49 = load i32, ptr %6, align 4, !tbaa !10
  %50 = load i32, ptr %10, align 4, !tbaa !10
  %51 = load i32, ptr %8, align 4, !tbaa !10
  %52 = call i32 @Abc_LitNotCond(i32 noundef %50, i32 noundef %51)
  call void @Gia_ManResubPrintLit(ptr noundef %48, i32 noundef %49, i32 noundef %52)
  %53 = call i32 (ptr, ...) @printf(ptr noundef @.str.11)
  call void @llvm.lifetime.end.p0(i64 4, ptr %10) #14
  call void @llvm.lifetime.end.p0(i64 4, ptr %9) #14
  ret void
}