; Function Attrs: nofree nounwind uwtable
define void @Gia_ManResubPrintNode(ptr noundef readonly captures(none) %0, i32 noundef %1, i32 noundef %2, i32 noundef %3) local_unnamed_addr #3 {
  %5 = shl nsw i32 %2, 1
  %6 = getelementptr i8, ptr %0, i64 8
  %.val20 = load ptr, ptr %6, align 8, !tbaa !30
  %7 = sext i32 %5 to i64
  %8 = getelementptr inbounds i32, ptr %.val20, i64 %7
  %9 = load i32, ptr %8, align 4, !tbaa !31
  %10 = or disjoint i32 %5, 1
  %11 = sext i32 %10 to i64
  %12 = getelementptr inbounds i32, ptr %.val20, i64 %11
  %13 = load i32, ptr %12, align 4, !tbaa !31
  %14 = icmp sle i32 %9, %13
  %15 = and i32 %3, 1
  %.not = icmp eq i32 %15, 0
  %or.cond = or i1 %.not, %14
  br i1 %or.cond, label %17, label %16

16:                                               ; preds = %4
  %putchar = tail call i32 @putchar(i32 126)
  br label %17

17:                                               ; preds = %16, %4
  %.0 = phi i32 [ 0, %16 ], [ %3, %4 ]
  %putchar17 = tail call i32 @putchar(i32 40)
  %18 = icmp sgt i32 %.0, 0
  %19 = zext i1 %18 to i32
  %20 = xor i32 %9, %19
  tail call void @Gia_ManResubPrintLit(ptr noundef nonnull %0, i32 noundef %1, i32 noundef %20)
  %.not18 = icmp eq i32 %.0, 0
  %spec.select = select i1 %.not18, i32 38, i32 124
  %21 = select i1 %14, i32 %spec.select, i32 94
  %22 = tail call i32 (ptr, ...) @printf(ptr noundef nonnull dereferenceable(1) @.str.10, i32 noundef %21)
  %23 = xor i32 %13, %19
  tail call void @Gia_ManResubPrintLit(ptr noundef nonnull %0, i32 noundef %1, i32 noundef %23)
  %putchar19 = tail call i32 @putchar(i32 41)
  ret void
}